target datalayout = "e-m:e-p270:32:32-p271:32:32-p272:64:64-i64:64-i128:128-f80:128-n8:16:32:64-S128"
target triple = "x86_64-pc-linux-gnu"

%struct.PJconsts = type <{ ptr, ptr, ptr, ptr, ptr, ptr, ptr, ptr, ptr, ptr, ptr, ptr, i32, [4 x i8], ptr, ptr, ptr, ptr, ptr, ptr, ptr, ptr, double, double, double, double, double, double, double, double, double, double, double, double, double, double, double, double, double, double, double, double, double, double, i32, i32, i32, i32, i32, i32, i32, i32, i32, i32, i32, [4 x i8], ptr, ptr, ptr, ptr, ptr, ptr, double, double, double, double, double, double, double, double, double, double, double, i32, [4 x i8], [7 x double], i32, [4 x i8], ptr, ptr, double, double, i32, [4 x i8], %"class.std::shared_ptr", i8, [7 x i8], double, i8, [7 x i8], %"class.std::__cxx11::basic_string", %"class.std::__cxx11::basic_string", %"class.std::__cxx11::basic_string", i8, [7 x i8], %"class.std::vector", i32, [4 x i8], %"class.std::vector.3", i32, i8, i8, i8, i8 }>
%"class.std::shared_ptr" = type { %"class.std::__shared_ptr" }
%"class.std::__shared_ptr" = type { ptr, %"class.std::__shared_count" }
%"class.std::__shared_count" = type { ptr }
%"class.std::__cxx11::basic_string" = type { %"struct.std::__cxx11::basic_string<char>::_Alloc_hider", i64, %union.anon }
%"struct.std::__cxx11::basic_string<char>::_Alloc_hider" = type { ptr }
%union.anon = type { i64, [8 x i8] }
%"class.std::vector" = type { %"struct.std::_Vector_base" }
%"struct.std::_Vector_base" = type { %"struct.std::_Vector_base<osgeo::proj::operation::GridDescription, std::allocator<osgeo::proj::operation::GridDescription>>::_Vector_impl" }
%"struct.std::_Vector_base<osgeo::proj::operation::GridDescription, std::allocator<osgeo::proj::operation::GridDescription>>::_Vector_impl" = type { %"struct.std::_Vector_base<osgeo::proj::operation::GridDescription, std::allocator<osgeo::proj::operation::GridDescription>>::_Vector_impl_data" }
%"struct.std::_Vector_base<osgeo::proj::operation::GridDescription, std::allocator<osgeo::proj::operation::GridDescription>>::_Vector_impl_data" = type { ptr, ptr, ptr }
%"class.std::vector.3" = type { %"struct.std::_Vector_base.4" }
%"struct.std::_Vector_base.4" = type { %"struct.std::_Vector_base<PJCoordOperation, std::allocator<PJCoordOperation>>::_Vector_impl" }
%"struct.std::_Vector_base<PJCoordOperation, std::allocator<PJCoordOperation>>::_Vector_impl" = type { %"struct.std::_Vector_base<PJCoordOperation, std::allocator<PJCoordOperation>>::_Vector_impl_data" }
%"struct.std::_Vector_base<PJCoordOperation, std::allocator<PJCoordOperation>>::_Vector_impl_data" = type { ptr, ptr, ptr }
%"struct.(anonymous namespace)::horner" = type { i32, i32, i32, double, i8, double, ptr, ptr, ptr, ptr, ptr, ptr, ptr, ptr }

; Function Attrs: mustprogress nounwind uwtable
define internal void @_ZL11horner_freePN12_GLOBAL__N_16hornerE(ptr noundef %0) #2 {
  %2 = alloca ptr, align 8
  store ptr %0, ptr %2, align 8
  %3 = load ptr, ptr %2, align 8
  %4 = getelementptr inbounds %"struct.(anonymous namespace)::horner", ptr %3, i32 0, i32 9
  %5 = load ptr, ptr %4, align 8
  call void @free(ptr noundef %5) #10
  %6 = load ptr, ptr %2, align 8
  %7 = getelementptr inbounds %"struct.(anonymous namespace)::horner", ptr %6, i32 0, i32 8
  %8 = load ptr, ptr %7, align 8
  call void @free(ptr noundef %8) #10
  %9 = load ptr, ptr %2, align 8
  %10 = getelementptr inbounds %"struct.(anonymous namespace)::horner", ptr %9, i32 0, i32 7
  %11 = load ptr, ptr %10, align 8
  call void @free(ptr noundef %11) #10
  %12 = load ptr, ptr %2, align 8
  %13 = getelementptr inbounds %"struct.(anonymous namespace)::horner", ptr %12, i32 0, i32 6
  %14 = load ptr, ptr %13, align 8
  call void @free(ptr noundef %14) #10
  %15 = load ptr, ptr %2, align 8
  %16 = getelementptr inbounds %"struct.(anonymous namespace)::horner", ptr %15, i32 0, i32 10
  %17 = load ptr, ptr %16, align 8
  call void @free(ptr noundef %17) #10
  %18 = load ptr, ptr %2, align 8
  %19 = getelementptr inbounds %"struct.(anonymous namespace)::horner", ptr %18, i32 0, i32 11
  %20 = load ptr, ptr %19, align 8
  call void @free(ptr noundef %20) #10
  %21 = load ptr, ptr %2, align 8
  %22 = getelementptr inbounds %"struct.(anonymous namespace)::horner", ptr %21, i32 0, i32 12
  %23 = load ptr, ptr %22, align 8
  call void @free(ptr noundef %23) #10
  %24 = load ptr, ptr %2, align 8
  %25 = getelementptr inbounds %"struct.(anonymous namespace)::horner", ptr %24, i32 0, i32 13
  %26 = load ptr, ptr %25, align 8
  call void @free(ptr noundef %26) #10
  %27 = load ptr, ptr %2, align 8
  call void @free(ptr noundef %27) #10
  ret void
}

; Function Attrs: mustprogress uwtable
define internal noundef ptr @_ZL13horner_freeupP8PJconstsi(ptr noundef %0, i32 noundef %1) #0 {
  %3 = alloca ptr, align 8
  %4 = alloca ptr, align 8
  %5 = alloca i32, align 4
  store ptr %0, ptr %4, align 8
  store i32 %1, ptr %5, align 4
  %6 = load ptr, ptr %4, align 8
  %7 = icmp eq ptr null, %6
  br i1 %7, label %8, label %9

8:                                                ; preds = %2
  store ptr null, ptr %3, align 8
  br label %27

9:                                                ; preds = %2
  %10 = load ptr, ptr %4, align 8
  %11 = getelementptr inbounds %struct.PJconsts, ptr %10, i32 0, i32 11
  %12 = load ptr, ptr %11, align 8
  %13 = icmp eq ptr null, %12
  br i1 %13, label %14, label %18

14:                                               ; preds = %9
  %15 = load ptr, ptr %4, align 8
  %16 = load i32, ptr %5, align 4
  %17 = call noundef ptr @_Z21pj_default_destructorP8PJconstsi(ptr noundef %15, i32 noundef %16)
  store ptr %17, ptr %3, align 8
  br label %27

18:                                               ; preds = %9
  %19 = load ptr, ptr %4, align 8
  %20 = getelementptr inbounds %struct.PJconsts, ptr %19, i32 0, i32 11
  %21 = load ptr, ptr %20, align 8
  call void @_ZL11horner_freePN12_GLOBAL__N_16hornerE(ptr noundef %21)
  %22 = load ptr, ptr %4, align 8
  %23 = getelementptr inbounds %struct.PJconsts, ptr %22, i32 0, i32 11
  store ptr null, ptr %23, align 8
  %24 = load ptr, ptr %4, align 8
  %25 = load i32, ptr %5, align 4
  %26 = call noundef ptr @_Z21pj_default_destructorP8PJconstsi(ptr noundef %24, i32 noundef %25)
  store ptr %26, ptr %3, align 8
  br label %27

27:                                               ; preds = %18, %14, %8
  %28 = load ptr, ptr %3, align 8
  ret ptr %28
}