; Function Attrs: mustprogress uwtable
define internal noundef ptr @_ZL13horner_freeupP8PJconstsi(ptr noundef %0, i32 noundef %1) #0 {
  %3 = icmp eq ptr %0, null
  br i1 %3, label %26, label %4

4:                                                ; preds = %2
  %5 = getelementptr inbounds i8, ptr %0, i64 88
  %6 = load ptr, ptr %5, align 8
  %7 = icmp eq ptr %6, null
  br i1 %7, label %.sink.split, label %8

8:                                                ; preds = %4
  %9 = getelementptr inbounds i8, ptr %6, i64 64
  %10 = load ptr, ptr %9, align 8
  tail call void @free(ptr noundef %10) #10
  %11 = getelementptr inbounds i8, ptr %6, i64 56
  %12 = load ptr, ptr %11, align 8
  tail call void @free(ptr noundef %12) #10
  %13 = getelementptr inbounds i8, ptr %6, i64 48
  %14 = load ptr, ptr %13, align 8
  tail call void @free(ptr noundef %14) #10
  %15 = getelementptr inbounds i8, ptr %6, i64 40
  %16 = load ptr, ptr %15, align 8
  tail call void @free(ptr noundef %16) #10
  %17 = getelementptr inbounds i8, ptr %6, i64 72
  %18 = load ptr, ptr %17, align 8
  tail call void @free(ptr noundef %18) #10
  %19 = getelementptr inbounds i8, ptr %6, i64 80
  %20 = load ptr, ptr %19, align 8
  tail call void @free(ptr noundef %20) #10
  %21 = getelementptr inbounds i8, ptr %6, i64 88
  %22 = load ptr, ptr %21, align 8
  tail call void @free(ptr noundef %22) #10
  %23 = getelementptr inbounds i8, ptr %6, i64 96
  %24 = load ptr, ptr %23, align 8
  tail call void @free(ptr noundef %24) #10
  tail call void @free(ptr noundef nonnull %6) #10
  store ptr null, ptr %5, align 8
  br label %.sink.split

.sink.split:                                      ; preds = %4, %8
  %25 = tail call noundef ptr @_Z21pj_default_destructorP8PJconstsi(ptr noundef nonnull %0, i32 noundef %1)
  br label %26

26:                                               ; preds = %.sink.split, %2
  %.0 = phi ptr [ null, %2 ], [ %25, %.sink.split ]
  ret ptr %.0
}